; Function Attrs: mustprogress uwtable
define hidden noundef range(i32 6, 5) i32 @_ZN11bv_rewriter6mk_sgeEP4exprS1_R7obj_refIS0_11ast_managerE(ptr noundef nonnull align 8 dereferenceable(157) %0, ptr noundef %1, ptr noundef %2, ptr noundef nonnull align 8 dereferenceable(16) %3) local_unnamed_addr #3 align 2 {
  %5 = tail call noundef i32 @_ZN11bv_rewriter11mk_leq_coreEbP4exprS1_R7obj_refIS0_11ast_managerE(ptr noundef nonnull align 8 dereferenceable(157) %0, i1 noundef zeroext true, ptr noundef %2, ptr noundef %1, ptr noundef nonnull align 8 dereferenceable(16) %3)
  %.not = icmp eq i32 %5, 5
  br i1 %.not, label %6, label %25

6:                                                ; preds = %4
  %7 = getelementptr inbounds nuw i8, ptr %0, i64 8
  %8 = getelementptr inbounds nuw i8, ptr %0, i64 16
  %9 = load ptr, ptr %8, align 8, !tbaa !74
  %10 = load i32, ptr %7, align 8, !tbaa !75
  %11 = tail call noundef ptr @_ZN11ast_manager6mk_appEiiP4exprS1_(ptr noundef nonnull align 8 dereferenceable(976) %9, i32 noundef %10, i32 noundef 23, ptr noundef %2, ptr noundef %1)
  %.not.i = icmp eq ptr %11, null
  br i1 %.not.i, label %15, label %_ZN11ast_manager7inc_refEP3ast.exit.i

_ZN11ast_manager7inc_refEP3ast.exit.i:            ; preds = %6
  %12 = getelementptr inbounds nuw i8, ptr %11, i64 8
  %13 = load i32, ptr %12, align 4, !tbaa !71
  %14 = add i32 %13, 1
  store i32 %14, ptr %12, align 4, !tbaa !71
  br label %15

15:                                               ; preds = %_ZN11ast_manager7inc_refEP3ast.exit.i, %6
  %16 = load ptr, ptr %3, align 8, !tbaa !72
  %.not.i4.i = icmp eq ptr %16, null
  br i1 %.not.i4.i, label %_ZN7obj_refI4expr11ast_managerEaSEPS0_.exit, label %17

17:                                               ; preds = %15
  %18 = getelementptr inbounds nuw i8, ptr %3, i64 8
  %19 = load ptr, ptr %18, align 8, !tbaa !73
  %20 = getelementptr inbounds nuw i8, ptr %16, i64 8
  %21 = load i32, ptr %20, align 4, !tbaa !71
  %22 = add i32 %21, -1
  store i32 %22, ptr %20, align 4, !tbaa !71
  %23 = icmp eq i32 %22, 0
  br i1 %23, label %24, label %_ZN7obj_refI4expr11ast_managerEaSEPS0_.exit

24:                                               ; preds = %17
  tail call void @_ZN11ast_manager11delete_nodeEP3ast(ptr noundef nonnull align 8 dereferenceable(976) %19, ptr noundef nonnull %16)
  br label %_ZN7obj_refI4expr11ast_managerEaSEPS0_.exit

_ZN7obj_refI4expr11ast_managerEaSEPS0_.exit:      ; preds = %15, %17, %24
  store ptr %11, ptr %3, align 8, !tbaa !72
  br label %25

25:                                               ; preds = %4, %_ZN7obj_refI4expr11ast_managerEaSEPS0_.exit
  %.0 = phi i32 [ 4, %_ZN7obj_refI4expr11ast_managerEaSEPS0_.exit ], [ %5, %4 ]
  ret i32 %.0
}